target datalayout = "e-m:e-p270:32:32-p271:32:32-p272:64:64-i64:64-i128:128-f80:128-n8:16:32:64-S128"
target triple = "x86_64-pc-linux-gnu"

%struct.Qureg = type { i32, i32, i32, i64, i64, i32, i32, %struct.ComplexArray, %struct.ComplexArray, %struct.ComplexArray, ptr, ptr, ptr, ptr, ptr, ptr }
%struct.ComplexArray = type { ptr, ptr }
%struct.ComplexMatrix2 = type { [2 x [2 x double]], [2 x [2 x double]] }

@__func__.unitary = private unnamed_addr constant [8 x i8] c"unitary\00", align 1

; Function Attrs: nounwind uwtable
define void @unitary(ptr noundef byval(%struct.Qureg) align 8 %0, i32 noundef %1, ptr noundef byval(%struct.ComplexMatrix2) align 8 %2) #0 {
  %4 = alloca i32, align 4
  %5 = alloca %struct.ComplexMatrix2, align 8
  store i32 %1, ptr %4, align 4, !tbaa !4
  %6 = load i32, ptr %4, align 4, !tbaa !4
  call void @validateTarget(ptr noundef byval(%struct.Qureg) align 8 %0, i32 noundef %6, ptr noundef @__func__.unitary)
  call void @validateOneQubitUnitaryMatrix(ptr noundef byval(%struct.ComplexMatrix2) align 8 %2, ptr noundef @__func__.unitary)
  %7 = load i32, ptr %4, align 4, !tbaa !4
  call void @statevec_unitary(ptr noundef byval(%struct.Qureg) align 8 %0, i32 noundef %7, ptr noundef byval(%struct.ComplexMatrix2) align 8 %2)
  %8 = getelementptr inbounds nuw %struct.Qureg, ptr %0, i32 0, i32 0
  %9 = load i32, ptr %8, align 8, !tbaa !13
  %10 = icmp ne i32 %9, 0
  br i1 %10, label %11, label %16

11:                                               ; preds = %3
  %12 = load i32, ptr %4, align 4, !tbaa !4
  %13 = getelementptr inbounds nuw %struct.Qureg, ptr %0, i32 0, i32 1
  %14 = load i32, ptr %13, align 4, !tbaa !18
  %15 = add nsw i32 %12, %14
  call void @getConjugateMatrix2(ptr dead_on_unwind writable sret(%struct.ComplexMatrix2) align 8 %5, ptr noundef byval(%struct.ComplexMatrix2) align 8 %2)
  call void @statevec_unitary(ptr noundef byval(%struct.Qureg) align 8 %0, i32 noundef %15, ptr noundef byval(%struct.ComplexMatrix2) align 8 %5)
  br label %16

16:                                               ; preds = %11, %3
  %17 = load i32, ptr %4, align 4, !tbaa !4
  call void @qasm_recordUnitary(ptr noundef byval(%struct.Qureg) align 8 %0, ptr noundef byval(%struct.ComplexMatrix2) align 8 %2, i32 noundef %17)
  ret void
}