; Function Attrs: nounwind uwtable
define void @unitary(ptr noundef readonly byval(%struct.Qureg) align 8 captures(none) %0, i32 noundef %1, ptr noundef readonly byval(%struct.ComplexMatrix2) align 8 captures(none) %2) local_unnamed_addr #0 {
  %4 = alloca %struct.ComplexMatrix2, align 8
  tail call void @validateTarget(ptr noundef nonnull byval(%struct.Qureg) align 8 %0, i32 noundef %1, ptr noundef nonnull @__func__.unitary) #17
  tail call void @validateOneQubitUnitaryMatrix(ptr noundef nonnull byval(%struct.ComplexMatrix2) align 8 %2, ptr noundef nonnull @__func__.unitary) #17
  tail call void @statevec_unitary(ptr noundef nonnull byval(%struct.Qureg) align 8 %0, i32 noundef %1, ptr noundef nonnull byval(%struct.ComplexMatrix2) align 8 %2) #17
  %5 = load i32, ptr %0, align 8, !tbaa !12
  %.not = icmp eq i32 %5, 0
  br i1 %.not, label %10, label %6

6:                                                ; preds = %3
  %7 = getelementptr inbounds nuw i8, ptr %0, i64 4
  %8 = load i32, ptr %7, align 4, !tbaa !17
  %9 = add nsw i32 %8, %1
  call void @getConjugateMatrix2(ptr dead_on_unwind nonnull writable sret(%struct.ComplexMatrix2) align 8 %4, ptr noundef nonnull byval(%struct.ComplexMatrix2) align 8 %2) #17
  call void @statevec_unitary(ptr noundef nonnull byval(%struct.Qureg) align 8 %0, i32 noundef %9, ptr noundef nonnull byval(%struct.ComplexMatrix2) align 8 %4) #17
  br label %10

10:                                               ; preds = %6, %3
  call void @qasm_recordUnitary(ptr noundef nonnull byval(%struct.Qureg) align 8 %0, ptr noundef nonnull byval(%struct.ComplexMatrix2) align 8 %2, i32 noundef %1) #17
  ret void
}